target datalayout = "e-m:e-p270:32:32-p271:32:32-p272:64:64-i64:64-i128:128-f80:128-n8:16:32:64-S128"
target triple = "x86_64-unknown-linux-gnu"

%struct.CPUArchState = type { [32 x i64], [32 x i64], [512 x i64], i64, i64, i64, i64, i64, i8, i64, i64, i64, [32 x i64], i64, %struct.float_status, i64, i64, i64, i64, i64, i64, i32, i32, i32, i32, i32, i64, i64, i32, i64, i64, ptr, ptr, i8, i64, i64, [8 x i8] }
%struct.float_status = type { i16, i8, i8, i8, i8, i8, i8, i8, i8, i8, i8, i8 }

; Function Attrs: nounwind sspstrong uwtable
define internal i64 @int128_getlo(i64 noundef %a.coerce0, i64 noundef %a.coerce1) #1 {
entry:
  %a = alloca i128, align 16
  %a.addr = alloca i128, align 16
  %0 = getelementptr inbounds { i64, i64 }, ptr %a, i32 0, i32 0
  store i64 %a.coerce0, ptr %0, align 16
  %1 = getelementptr inbounds { i64, i64 }, ptr %a, i32 0, i32 1
  store i64 %a.coerce1, ptr %1, align 8
  %a1 = load i128, ptr %a, align 16
  store i128 %a1, ptr %a.addr, align 16
  %2 = load i128, ptr %a.addr, align 16
  %conv = trunc i128 %2 to i64
  ret i64 %conv
}

; Function Attrs: nounwind sspstrong uwtable
define internal i64 @int128_gethi(i64 noundef %a.coerce0, i64 noundef %a.coerce1) #1 {
entry:
  %a = alloca i128, align 16
  %a.addr = alloca i128, align 16
  %0 = getelementptr inbounds { i64, i64 }, ptr %a, i32 0, i32 0
  store i64 %a.coerce0, ptr %0, align 16
  %1 = getelementptr inbounds { i64, i64 }, ptr %a, i32 0, i32 1
  store i64 %a.coerce1, ptr %1, align 8
  %a1 = load i128, ptr %a, align 16
  store i128 %a1, ptr %a.addr, align 16
  %2 = load i128, ptr %a.addr, align 16
  %shr = ashr i128 %2, 64
  %conv = trunc i128 %shr to i64
  ret i64 %conv
}

; Function Attrs: nounwind sspstrong uwtable
define internal { i64, i64 } @int128_make128(i64 noundef %lo, i64 noundef %hi) #1 {
entry:
  %retval = alloca i128, align 16
  %lo.addr = alloca i64, align 8
  %hi.addr = alloca i64, align 8
  store i64 %lo, ptr %lo.addr, align 8
  store i64 %hi, ptr %hi.addr, align 8
  %0 = load i64, ptr %hi.addr, align 8
  %conv = zext i64 %0 to i128
  %shl = shl i128 %conv, 64
  %1 = load i64, ptr %lo.addr, align 8
  %conv1 = zext i64 %1 to i128
  %or = or i128 %shl, %conv1
  store i128 %or, ptr %retval, align 16
  %2 = load { i64, i64 }, ptr %retval, align 16
  ret { i64, i64 } %2
}

; Function Attrs: nounwind sspstrong uwtable
define internal { i64, i64 } @int128_zero() #1 {
entry:
  %retval = alloca i128, align 16
  store i128 0, ptr %retval, align 16
  %0 = load { i64, i64 }, ptr %retval, align 16
  ret { i64, i64 } %0
}

; Function Attrs: nounwind sspstrong uwtable
define dso_local i64 @helper_csrrw_i128(ptr noundef %env, i32 noundef %csr, i64 noundef %srcl, i64 noundef %srch, i64 noundef %maskl, i64 noundef %maskh) #1 {
entry:
  %env.addr = alloca ptr, align 8
  %csr.addr = alloca i32, align 4
  %srcl.addr = alloca i64, align 8
  %srch.addr = alloca i64, align 8
  %maskl.addr = alloca i64, align 8
  %maskh.addr = alloca i64, align 8
  %rv = alloca i128, align 16
  %coerce = alloca i128, align 16
  %ret = alloca i32, align 4
  %coerce2 = alloca i128, align 16
  %coerce4 = alloca i128, align 16
  %coerce5 = alloca i128, align 16
  %coerce7 = alloca i128, align 16
  %coerce9 = alloca i128, align 16
  store ptr %env, ptr %env.addr, align 8
  store i32 %csr, ptr %csr.addr, align 4
  store i64 %srcl, ptr %srcl.addr, align 8
  store i64 %srch, ptr %srch.addr, align 8
  store i64 %maskl, ptr %maskl.addr, align 8
  store i64 %maskh, ptr %maskh.addr, align 8
  %call = call { i64, i64 } @int128_zero()
  %0 = getelementptr inbounds { i64, i64 }, ptr %coerce, i32 0, i32 0
  %1 = extractvalue { i64, i64 } %call, 0
  store i64 %1, ptr %0, align 16
  %2 = getelementptr inbounds { i64, i64 }, ptr %coerce, i32 0, i32 1
  %3 = extractvalue { i64, i64 } %call, 1
  store i64 %3, ptr %2, align 8
  %4 = load i128, ptr %coerce, align 16
  store i128 %4, ptr %rv, align 16
  %5 = load ptr, ptr %env.addr, align 8
  %6 = load i32, ptr %csr.addr, align 4
  %7 = load i64, ptr %srcl.addr, align 8
  %8 = load i64, ptr %srch.addr, align 8
  %call1 = call { i64, i64 } @int128_make128(i64 noundef %7, i64 noundef %8)
  %9 = getelementptr inbounds { i64, i64 }, ptr %coerce2, i32 0, i32 0
  %10 = extractvalue { i64, i64 } %call1, 0
  store i64 %10, ptr %9, align 16
  %11 = getelementptr inbounds { i64, i64 }, ptr %coerce2, i32 0, i32 1
  %12 = extractvalue { i64, i64 } %call1, 1
  store i64 %12, ptr %11, align 8
  %13 = load i128, ptr %coerce2, align 16
  %14 = load i64, ptr %maskl.addr, align 8
  %15 = load i64, ptr %maskh.addr, align 8
  %call3 = call { i64, i64 } @int128_make128(i64 noundef %14, i64 noundef %15)
  %16 = getelementptr inbounds { i64, i64 }, ptr %coerce4, i32 0, i32 0
  %17 = extractvalue { i64, i64 } %call3, 0
  store i64 %17, ptr %16, align 16
  %18 = getelementptr inbounds { i64, i64 }, ptr %coerce4, i32 0, i32 1
  %19 = extractvalue { i64, i64 } %call3, 1
  store i64 %19, ptr %18, align 8
  %20 = load i128, ptr %coerce4, align 16
  store i128 %13, ptr %coerce5, align 16
  %21 = getelementptr inbounds { i64, i64 }, ptr %coerce5, i32 0, i32 0
  %22 = load i64, ptr %21, align 16
  %23 = getelementptr inbounds { i64, i64 }, ptr %coerce5, i32 0, i32 1
  %24 = load i64, ptr %23, align 8
  %call6 = call i32 @riscv_csrrw_i128(ptr noundef %5, i32 noundef %6, ptr noundef %rv, i64 noundef %22, i64 noundef %24, i128 noundef %20)
  store i32 %call6, ptr %ret, align 4
  %25 = load i32, ptr %ret, align 4
  %cmp = icmp ne i32 %25, -1
  br i1 %cmp, label %if.then, label %if.end

if.then:                                          ; preds = %entry
  %26 = load ptr, ptr %env.addr, align 8
  %27 = load i32, ptr %ret, align 4
  %28 = call ptr @llvm.returnaddress(i32 0)
  %29 = ptrtoint ptr %28 to i64
  call void @riscv_raise_exception(ptr noundef %26, i32 noundef %27, i64 noundef %29) #6
  unreachable

if.end:                                           ; preds = %entry
  %30 = load i128, ptr %rv, align 16
  store i128 %30, ptr %coerce7, align 16
  %31 = getelementptr inbounds { i64, i64 }, ptr %coerce7, i32 0, i32 0
  %32 = load i64, ptr %31, align 16
  %33 = getelementptr inbounds { i64, i64 }, ptr %coerce7, i32 0, i32 1
  %34 = load i64, ptr %33, align 8
  %call8 = call i64 @int128_gethi(i64 noundef %32, i64 noundef %34)
  %35 = load ptr, ptr %env.addr, align 8
  %retxh = getelementptr inbounds %struct.CPUArchState, ptr %35, i32 0, i32 26
  store i64 %call8, ptr %retxh, align 8
  %36 = load i128, ptr %rv, align 16
  store i128 %36, ptr %coerce9, align 16
  %37 = getelementptr inbounds { i64, i64 }, ptr %coerce9, i32 0, i32 0
  %38 = load i64, ptr %37, align 16
  %39 = getelementptr inbounds { i64, i64 }, ptr %coerce9, i32 0, i32 1
  %40 = load i64, ptr %39, align 8
  %call10 = call i64 @int128_getlo(i64 noundef %38, i64 noundef %40)
  ret i64 %call10
}