; Function Attrs: nounwind sspstrong uwtable
define dso_local i64 @helper_csrrw_i128(ptr noundef %env, i32 noundef %csr, i64 noundef %srcl, i64 noundef %srch, i64 noundef %maskl, i64 noundef %maskh) local_unnamed_addr #2 {
entry:
  %rv = alloca i128, align 16
  store i128 0, ptr %rv, align 16
  %coerce4.sroa.2.0.insert.ext = zext i64 %maskh to i128
  %coerce4.sroa.2.0.insert.shift = shl nuw i128 %coerce4.sroa.2.0.insert.ext, 64
  %coerce4.sroa.0.0.insert.ext = zext i64 %maskl to i128
  %coerce4.sroa.0.0.insert.insert = or disjoint i128 %coerce4.sroa.2.0.insert.shift, %coerce4.sroa.0.0.insert.ext
  %call6 = call i32 @riscv_csrrw_i128(ptr noundef %env, i32 noundef %csr, ptr noundef nonnull %rv, i64 noundef %srcl, i64 noundef %srch, i128 noundef %coerce4.sroa.0.0.insert.insert) #9
  %cmp.not = icmp eq i32 %call6, -1
  br i1 %cmp.not, label %if.end, label %if.then

if.then:                                          ; preds = %entry
  %0 = call ptr @llvm.returnaddress(i32 0)
  %1 = ptrtoint ptr %0 to i64
  call void @riscv_raise_exception(ptr noundef %env, i32 noundef %call6, i64 noundef %1) #8
  unreachable

if.end:                                           ; preds = %entry
  %2 = load i128, ptr %rv, align 16
  %coerce7.sroa.2.0.extract.shift = lshr i128 %2, 64
  %coerce7.sroa.2.0.extract.trunc = trunc nuw i128 %coerce7.sroa.2.0.extract.shift to i64
  %retxh = getelementptr inbounds nuw i8, ptr %env, i64 5032
  store i64 %coerce7.sroa.2.0.extract.trunc, ptr %retxh, align 8
  %coerce9.sroa.0.0.extract.trunc = trunc i128 %2 to i64
  ret i64 %coerce9.sroa.0.0.extract.trunc
}